; Function Attrs: mustprogress nofree norecurse nosync nounwind willreturn memory(read, inaccessiblemem: none) uwtable
define noundef i32 @_ZN12colvarmodule10atom_group7overlapERKS0_S2_(ptr nocapture noundef nonnull readonly align 8 dereferenceable(1440) %0, ptr nocapture noundef nonnull readonly align 8 dereferenceable(1440) %1) local_unnamed_addr #15 align 2 {
  %3 = getelementptr inbounds i8, ptr %0, i64 504
  %4 = load ptr, ptr %3, align 8
  %5 = getelementptr inbounds i8, ptr %0, i64 512
  %6 = load ptr, ptr %5, align 8
  %.not16 = icmp eq ptr %4, %6
  br i1 %.not16, label %.loopexit, label %.lr.ph19

.lr.ph19:                                         ; preds = %2
  %7 = getelementptr inbounds i8, ptr %1, i64 504
  %8 = load ptr, ptr %7, align 8
  %9 = getelementptr inbounds i8, ptr %1, i64 512
  %10 = load ptr, ptr %9, align 8
  %.not1314 = icmp eq ptr %8, %10
  br i1 %.not1314, label %.loopexit, label %.lr.ph

.lr.ph:                                           ; preds = %.lr.ph19, %._crit_edge
  %.sroa.09.017 = phi ptr [ %21, %._crit_edge ], [ %4, %.lr.ph19 ]
  %11 = getelementptr inbounds i8, ptr %.sroa.09.017, i64 4
  %12 = load i32, ptr %11, align 4
  br label %15

13:                                               ; preds = %15
  %14 = getelementptr inbounds i8, ptr %.sroa.05.015, i64 120
  %.not13 = icmp eq ptr %14, %10
  br i1 %.not13, label %._crit_edge, label %15, !llvm.loop !99

15:                                               ; preds = %.lr.ph, %13
  %.sroa.05.015 = phi ptr [ %8, %.lr.ph ], [ %14, %13 ]
  %16 = getelementptr inbounds i8, ptr %.sroa.05.015, i64 4
  %17 = load i32, ptr %16, align 4
  %18 = icmp eq i32 %12, %17
  br i1 %18, label %19, label %13

19:                                               ; preds = %15
  %20 = add nsw i32 %12, 1
  br label %.loopexit

._crit_edge:                                      ; preds = %13
  %21 = getelementptr inbounds i8, ptr %.sroa.09.017, i64 120
  %.not = icmp eq ptr %21, %6
  br i1 %.not, label %.loopexit, label %.lr.ph, !llvm.loop !100

.loopexit:                                        ; preds = %._crit_edge, %.lr.ph19, %2, %19
  %.0 = phi i32 [ %20, %19 ], [ 0, %2 ], [ 0, %.lr.ph19 ], [ 0, %._crit_edge ]
  ret i32 %.0
}